; Function Attrs: mustprogress nofree nounwind willreturn memory(write, argmem: readwrite) uwtable
define noundef double @_ZNK8QuantLib12AbcdFunction23instantaneousVolatilityEdd(ptr nocapture noundef nonnull readonly align 8 dereferenceable(136) %this, double noundef %u, double noundef %T) local_unnamed_addr #2 align 2 {
entry:
  %sub.i.i = fsub double %T, %u
  %cmp.i.i.i = fcmp olt double %sub.i.i, 0.000000e+00
  br i1 %cmp.i.i.i, label %_ZNK8QuantLib12AbcdFunction21instantaneousVarianceEdd.exit, label %cond.false.i3.i.i

cond.false.i3.i.i:                                ; preds = %entry
  %0 = load double, ptr %this, align 8, !tbaa !3
  %b_.i.i.i = getelementptr inbounds nuw i8, ptr %this, i64 8
  %1 = load double, ptr %b_.i.i.i, align 8, !tbaa !13
  %2 = tail call double @llvm.fmuladd.f64(double %1, double %sub.i.i, double %0)
  %c_.i.i.i = getelementptr inbounds nuw i8, ptr %this, i64 16
  %3 = load double, ptr %c_.i.i.i, align 8, !tbaa !14
  %fneg.i.i.i = fneg double %3
  %mul.i.i.i = fmul double %sub.i.i, %fneg.i.i.i
  %call.i.i.i = tail call double @exp(double noundef %mul.i.i.i) #19, !tbaa !15
  %d_.i.i.i = getelementptr inbounds nuw i8, ptr %this, i64 24
  %4 = load double, ptr %d_.i.i.i, align 8, !tbaa !17
  %5 = tail call double @llvm.fmuladd.f64(double %2, double %call.i.i.i, double %4)
  %call.i8.i.i = tail call double @exp(double noundef %mul.i.i.i) #19, !tbaa !15
  %6 = tail call double @llvm.fmuladd.f64(double %2, double %call.i8.i.i, double %4)
  %7 = fmul double %5, %6
  br label %_ZNK8QuantLib12AbcdFunction21instantaneousVarianceEdd.exit

_ZNK8QuantLib12AbcdFunction21instantaneousVarianceEdd.exit: ; preds = %entry, %cond.false.i3.i.i
  %mul.i.i = phi double [ %7, %cond.false.i3.i.i ], [ 0.000000e+00, %entry ]
  %call2 = tail call double @sqrt(double noundef %mul.i.i) #19, !tbaa !15
  ret double %call2
}